; Function Attrs: mustprogress nofree norecurse nosync nounwind willreturn memory(read, argmem: readwrite, inaccessiblemem: none) uwtable
define void @_ZN10OpenSubdiv6v3_6_03Bfr11FaceSurface24reviseSdcOptionsInEffectEv(ptr nocapture noundef nonnull align 8 dereferenceable(143) %0) local_unnamed_addr #3 align 2 {
  %2 = getelementptr inbounds nuw i8, ptr %0, i64 136
  %3 = getelementptr inbounds nuw i8, ptr %0, i64 138
  store i8 1, ptr %3, align 2
  %4 = getelementptr inbounds i8, ptr %0, i64 139
  store i8 5, ptr %4, align 1
  %5 = getelementptr inbounds i8, ptr %0, i64 140
  %6 = load i8, ptr %5, align 4
  %.not = icmp eq i8 %6, 0
  br i1 %.not, label %11, label %7

7:                                                ; preds = %1
  %8 = load i16, ptr %2, align 8
  %9 = and i16 %8, 48
  %or.cond.not = icmp eq i16 %9, 0
  br i1 %or.cond.not, label %10, label %11

10:                                               ; preds = %7
  store i8 0, ptr %5, align 4
  br label %11

11:                                               ; preds = %7, %10, %1
  %12 = getelementptr inbounds i8, ptr %0, i64 141
  %13 = load i8, ptr %12, align 1
  %.not10 = icmp eq i8 %13, 0
  br i1 %.not10, label %21, label %14

14:                                               ; preds = %11
  %15 = load ptr, ptr %0, align 8
  %16 = load i32, ptr %15, align 8
  %.not11 = icmp eq i32 %16, 1
  br i1 %.not11, label %17, label %20

17:                                               ; preds = %14
  %18 = load i16, ptr %2, align 8
  %19 = and i16 %18, 128
  %.not13 = icmp eq i16 %19, 0
  br i1 %.not13, label %20, label %21

20:                                               ; preds = %17, %14
  store i8 0, ptr %12, align 1
  br label %21

21:                                               ; preds = %17, %20, %11
  ret void
}